target datalayout = "e-m:e-p270:32:32-p271:32:32-p272:64:64-i64:64-i128:128-f80:128-n8:16:32:64-S128"
target triple = "x86_64-unknown-linux-gnu"

%struct.BdrvChildClass = type { i8, i8, ptr, ptr, ptr, ptr, ptr, ptr, ptr, ptr, ptr, ptr, ptr, ptr, ptr, ptr, ptr }
%struct.QTailQLink = type { ptr, ptr }
%struct.BlockDriverState = type { i32, i8, i8, i8, i8, i8, ptr, ptr, ptr, %struct.anon.0, i8, [4096 x i8], [4096 x i8], [4096 x i8], [16 x i8], ptr, [4096 x i8], %struct.BlockLimits, i32, i32, i32, i32, [32 x i8], %union.anon, %union.anon.1, %union.anon.2, i32, [16 x %struct.anon.3], ptr, %struct.anon.4, ptr, ptr, %struct.anon.5, ptr, ptr, i32, ptr, i64, i64, %struct.QemuMutex, %struct.anon.6, %struct.Stat64, i32, i32, i32, i32, i32, i32, %struct.QemuMutex, %struct.anon.7, %struct.CoQueue, i8, i32, i8, %struct.CoMutex, ptr, ptr }
%struct.anon.0 = type { ptr }
%struct.BlockLimits = type { i32, i64, i32, i64, i32, i32, i32, i64, i32, i64, i64, i32, i8, i32, i32, i32, i32, i32, i32, i32 }
%union.anon = type { %struct.QTailQLink }
%union.anon.1 = type { %struct.QTailQLink }
%union.anon.2 = type { %struct.QTailQLink }
%struct.anon.3 = type { ptr }
%struct.anon.4 = type { ptr }
%struct.anon.5 = type { ptr }
%struct.anon.6 = type { ptr }
%struct.Stat64 = type { i64 }
%struct.QemuMutex = type { %union.pthread_mutex_t, i8 }
%union.pthread_mutex_t = type { %struct.__pthread_mutex_s }
%struct.__pthread_mutex_s = type { i32, i32, i32, i32, i32, i16, i16, %struct.__pthread_internal_list }
%struct.__pthread_internal_list = type { ptr, ptr }
%struct.anon.7 = type { ptr }
%struct.CoQueue = type { %struct.anon.8 }
%struct.anon.8 = type { ptr, ptr }
%struct.CoMutex = type { i32, ptr, %struct.anon.9, %struct.anon.9, i32, i32, ptr }
%struct.anon.9 = type { ptr }
%struct.BDRVQuorumState = type { ptr, i32, i32, i32, i8, i8, i32 }
%struct.BdrvChild = type { ptr, ptr, ptr, i32, ptr, i64, i64, i8, i8, %struct.anon.10, %struct.anon.11 }
%struct.anon.10 = type { ptr, ptr }
%struct.anon.11 = type { ptr, ptr }

@.str.6 = private unnamed_addr constant [23 x i8] c"../qemu/block/quorum.c\00", align 1
@child_of_bds = external constant %struct.BdrvChildClass, align 8
@__func__.quorum_add_child = private unnamed_addr constant [17 x i8] c"quorum_add_child\00", align 1
@.str.24 = private unnamed_addr constant [49 x i8] c"Cannot add a child to a quorum in blkverify mode\00", align 1
@.str.25 = private unnamed_addr constant [49 x i8] c"s->num_children <= INT_MAX / sizeof(BdrvChild *)\00", align 1
@__PRETTY_FUNCTION__.quorum_add_child = private unnamed_addr constant [72 x i8] c"void quorum_add_child(BlockDriverState *, BlockDriverState *, Error **)\00", align 1
@.str.26 = private unnamed_addr constant [18 x i8] c"Too many children\00", align 1
@.str.27 = private unnamed_addr constant [12 x i8] c"children.%u\00", align 1
@.str.28 = private unnamed_addr constant [27 x i8] c"cannot generate child name\00", align 1

; Function Attrs: nounwind sspstrong uwtable
define internal void @quorum_refresh_flags(ptr noundef %bs) #0 {
entry:
  %bs.addr = alloca ptr, align 8
  %s = alloca ptr, align 8
  %i = alloca i32, align 4
  store ptr %bs, ptr %bs.addr, align 8
  %0 = load ptr, ptr %bs.addr, align 8
  %opaque = getelementptr inbounds %struct.BlockDriverState, ptr %0, i32 0, i32 7
  %1 = load ptr, ptr %opaque, align 8
  store ptr %1, ptr %s, align 8
  %2 = load ptr, ptr %bs.addr, align 8
  %supported_zero_flags = getelementptr inbounds %struct.BlockDriverState, ptr %2, i32 0, i32 20
  store i32 276, ptr %supported_zero_flags, align 8
  store i32 0, ptr %i, align 4
  br label %for.cond

for.cond:                                         ; preds = %for.inc, %entry
  %3 = load i32, ptr %i, align 4
  %4 = load ptr, ptr %s, align 8
  %num_children = getelementptr inbounds %struct.BDRVQuorumState, ptr %4, i32 0, i32 1
  %5 = load i32, ptr %num_children, align 8
  %cmp = icmp slt i32 %3, %5
  br i1 %cmp, label %for.body, label %for.end

for.body:                                         ; preds = %for.cond
  %6 = load ptr, ptr %s, align 8
  %children = getelementptr inbounds %struct.BDRVQuorumState, ptr %6, i32 0, i32 0
  %7 = load ptr, ptr %children, align 8
  %8 = load i32, ptr %i, align 4
  %idxprom = sext i32 %8 to i64
  %arrayidx = getelementptr ptr, ptr %7, i64 %idxprom
  %9 = load ptr, ptr %arrayidx, align 8
  %bs1 = getelementptr inbounds %struct.BdrvChild, ptr %9, i32 0, i32 0
  %10 = load ptr, ptr %bs1, align 8
  %supported_zero_flags2 = getelementptr inbounds %struct.BlockDriverState, ptr %10, i32 0, i32 20
  %11 = load i32, ptr %supported_zero_flags2, align 8
  %12 = load ptr, ptr %bs.addr, align 8
  %supported_zero_flags3 = getelementptr inbounds %struct.BlockDriverState, ptr %12, i32 0, i32 20
  %13 = load i32, ptr %supported_zero_flags3, align 8
  %and = and i32 %13, %11
  store i32 %and, ptr %supported_zero_flags3, align 8
  br label %for.inc

for.inc:                                          ; preds = %for.body
  %14 = load i32, ptr %i, align 4
  %inc = add i32 %14, 1
  store i32 %inc, ptr %i, align 4
  br label %for.cond, !llvm.loop !17

for.end:                                          ; preds = %for.cond
  %15 = load ptr, ptr %bs.addr, align 8
  %supported_zero_flags4 = getelementptr inbounds %struct.BlockDriverState, ptr %15, i32 0, i32 20
  %16 = load i32, ptr %supported_zero_flags4, align 8
  %or = or i32 %16, 64
  store i32 %or, ptr %supported_zero_flags4, align 8
  ret void
}

; Function Attrs: nounwind sspstrong uwtable
define internal void @quorum_add_child(ptr noundef %bs, ptr noundef %child_bs, ptr noundef %errp) #0 {
entry:
  %bs.addr = alloca ptr, align 8
  %child_bs.addr = alloca ptr, align 8
  %errp.addr = alloca ptr, align 8
  %s = alloca ptr, align 8
  %child = alloca ptr, align 8
  %indexstr = alloca [32 x i8], align 16
  %ret = alloca i32, align 4
  store ptr %bs, ptr %bs.addr, align 8
  store ptr %child_bs, ptr %child_bs.addr, align 8
  store ptr %errp, ptr %errp.addr, align 8
  %0 = load ptr, ptr %bs.addr, align 8
  %opaque = getelementptr inbounds %struct.BlockDriverState, ptr %0, i32 0, i32 7
  %1 = load ptr, ptr %opaque, align 8
  store ptr %1, ptr %s, align 8
  %2 = load ptr, ptr %s, align 8
  %is_blkverify = getelementptr inbounds %struct.BDRVQuorumState, ptr %2, i32 0, i32 4
  %3 = load i8, ptr %is_blkverify, align 4
  %tobool = trunc i8 %3 to i1
  br i1 %tobool, label %if.then, label %if.end

if.then:                                          ; preds = %entry
  %4 = load ptr, ptr %errp.addr, align 8
  call void (ptr, ptr, i32, ptr, ptr, ...) @error_setg_internal(ptr noundef %4, ptr noundef @.str.6, i32 noundef 1078, ptr noundef @__func__.quorum_add_child, ptr noundef @.str.24)
  br label %return

if.end:                                           ; preds = %entry
  %5 = load ptr, ptr %s, align 8
  %num_children = getelementptr inbounds %struct.BDRVQuorumState, ptr %5, i32 0, i32 1
  %6 = load i32, ptr %num_children, align 8
  %conv = sext i32 %6 to i64
  %cmp = icmp ule i64 %conv, 268435455
  br i1 %cmp, label %if.then2, label %if.else

if.then2:                                         ; preds = %if.end
  br label %if.end3

if.else:                                          ; preds = %if.end
  call void @__assert_fail(ptr noundef @.str.25, ptr noundef @.str.6, i32 noundef 1082, ptr noundef @__PRETTY_FUNCTION__.quorum_add_child) #9
  unreachable

if.end3:                                          ; preds = %if.then2
  %7 = load ptr, ptr %s, align 8
  %num_children4 = getelementptr inbounds %struct.BDRVQuorumState, ptr %7, i32 0, i32 1
  %8 = load i32, ptr %num_children4, align 8
  %conv5 = sext i32 %8 to i64
  %cmp6 = icmp eq i64 %conv5, 268435455
  br i1 %cmp6, label %if.then10, label %lor.lhs.false

lor.lhs.false:                                    ; preds = %if.end3
  %9 = load ptr, ptr %s, align 8
  %next_child_index = getelementptr inbounds %struct.BDRVQuorumState, ptr %9, i32 0, i32 2
  %10 = load i32, ptr %next_child_index, align 4
  %cmp8 = icmp eq i32 %10, -1
  br i1 %cmp8, label %if.then10, label %if.end11

if.then10:                                        ; preds = %lor.lhs.false, %if.end3
  %11 = load ptr, ptr %errp.addr, align 8
  call void (ptr, ptr, i32, ptr, ptr, ...) @error_setg_internal(ptr noundef %11, ptr noundef @.str.6, i32 noundef 1085, ptr noundef @__func__.quorum_add_child, ptr noundef @.str.26)
  br label %return

if.end11:                                         ; preds = %lor.lhs.false
  %arraydecay = getelementptr inbounds [32 x i8], ptr %indexstr, i64 0, i64 0
  %12 = load ptr, ptr %s, align 8
  %next_child_index12 = getelementptr inbounds %struct.BDRVQuorumState, ptr %12, i32 0, i32 2
  %13 = load i32, ptr %next_child_index12, align 4
  %call = call i32 (ptr, i64, ptr, ...) @snprintf(ptr noundef %arraydecay, i64 noundef 32, ptr noundef @.str.27, i32 noundef %13) #8
  store i32 %call, ptr %ret, align 4
  %14 = load i32, ptr %ret, align 4
  %cmp13 = icmp slt i32 %14, 0
  br i1 %cmp13, label %if.then18, label %lor.lhs.false15

lor.lhs.false15:                                  ; preds = %if.end11
  %15 = load i32, ptr %ret, align 4
  %cmp16 = icmp sge i32 %15, 32
  br i1 %cmp16, label %if.then18, label %if.end19

if.then18:                                        ; preds = %lor.lhs.false15, %if.end11
  %16 = load ptr, ptr %errp.addr, align 8
  call void (ptr, ptr, i32, ptr, ptr, ...) @error_setg_internal(ptr noundef %16, ptr noundef @.str.6, i32 noundef 1091, ptr noundef @__func__.quorum_add_child, ptr noundef @.str.28)
  br label %return

if.end19:                                         ; preds = %lor.lhs.false15
  %17 = load ptr, ptr %s, align 8
  %next_child_index20 = getelementptr inbounds %struct.BDRVQuorumState, ptr %17, i32 0, i32 2
  %18 = load i32, ptr %next_child_index20, align 4
  %inc = add i32 %18, 1
  store i32 %inc, ptr %next_child_index20, align 4
  %19 = load ptr, ptr %child_bs.addr, align 8
  call void @bdrv_ref(ptr noundef %19)
  %20 = load ptr, ptr %bs.addr, align 8
  %21 = load ptr, ptr %child_bs.addr, align 8
  %arraydecay21 = getelementptr inbounds [32 x i8], ptr %indexstr, i64 0, i64 0
  %22 = load ptr, ptr %errp.addr, align 8
  %call22 = call ptr @bdrv_attach_child(ptr noundef %20, ptr noundef %21, ptr noundef %arraydecay21, ptr noundef @child_of_bds, i32 noundef 1, ptr noundef %22)
  store ptr %call22, ptr %child, align 8
  %23 = load ptr, ptr %child, align 8
  %cmp23 = icmp eq ptr %23, null
  br i1 %cmp23, label %if.then25, label %if.end27

if.then25:                                        ; preds = %if.end19
  %24 = load ptr, ptr %s, align 8
  %next_child_index26 = getelementptr inbounds %struct.BDRVQuorumState, ptr %24, i32 0, i32 2
  %25 = load i32, ptr %next_child_index26, align 4
  %dec = add i32 %25, -1
  store i32 %dec, ptr %next_child_index26, align 4
  br label %return

if.end27:                                         ; preds = %if.end19
  %26 = load ptr, ptr %s, align 8
  %children = getelementptr inbounds %struct.BDRVQuorumState, ptr %26, i32 0, i32 0
  %27 = load ptr, ptr %children, align 8
  %28 = load ptr, ptr %s, align 8
  %num_children28 = getelementptr inbounds %struct.BDRVQuorumState, ptr %28, i32 0, i32 1
  %29 = load i32, ptr %num_children28, align 8
  %add = add i32 %29, 1
  %conv29 = sext i32 %add to i64
  %call30 = call ptr @g_realloc_n(ptr noundef %27, i64 noundef %conv29, i64 noundef 8)
  %30 = load ptr, ptr %s, align 8
  %children31 = getelementptr inbounds %struct.BDRVQuorumState, ptr %30, i32 0, i32 0
  store ptr %call30, ptr %children31, align 8
  %31 = load ptr, ptr %child, align 8
  %32 = load ptr, ptr %s, align 8
  %children32 = getelementptr inbounds %struct.BDRVQuorumState, ptr %32, i32 0, i32 0
  %33 = load ptr, ptr %children32, align 8
  %34 = load ptr, ptr %s, align 8
  %num_children33 = getelementptr inbounds %struct.BDRVQuorumState, ptr %34, i32 0, i32 1
  %35 = load i32, ptr %num_children33, align 8
  %inc34 = add i32 %35, 1
  store i32 %inc34, ptr %num_children33, align 8
  %idxprom = sext i32 %35 to i64
  %arrayidx = getelementptr ptr, ptr %33, i64 %idxprom
  store ptr %31, ptr %arrayidx, align 8
  %36 = load ptr, ptr %bs.addr, align 8
  call void @quorum_refresh_flags(ptr noundef %36)
  br label %return

return:                                           ; preds = %if.end27, %if.then25, %if.then18, %if.then10, %if.then
  ret void
}