; Function Attrs: nounwind sspstrong uwtable
define internal void @quorum_add_child(ptr noundef %bs, ptr noundef %child_bs, ptr noundef %errp) #0 {
entry:
  %indexstr = alloca [32 x i8], align 16
  %opaque = getelementptr inbounds nuw i8, ptr %bs, i64 24
  %0 = load ptr, ptr %opaque, align 8
  %is_blkverify = getelementptr inbounds nuw i8, ptr %0, i64 20
  %1 = load i8, ptr %is_blkverify, align 4
  %tobool = trunc i8 %1 to i1
  br i1 %tobool, label %if.then, label %if.end

if.then:                                          ; preds = %entry
  tail call void (ptr, ptr, i32, ptr, ptr, ...) @error_setg_internal(ptr noundef %errp, ptr noundef nonnull @.str.6, i32 noundef 1078, ptr noundef nonnull @__func__.quorum_add_child, ptr noundef nonnull @.str.24) #17
  br label %return

if.end:                                           ; preds = %entry
  %num_children = getelementptr inbounds nuw i8, ptr %0, i64 8
  %2 = load i32, ptr %num_children, align 8
  %cmp = icmp ult i32 %2, 268435456
  br i1 %cmp, label %if.end3, label %if.else

if.else:                                          ; preds = %if.end
  tail call void @__assert_fail(ptr noundef nonnull @.str.25, ptr noundef nonnull @.str.6, i32 noundef 1082, ptr noundef nonnull @__PRETTY_FUNCTION__.quorum_add_child) #19
  unreachable

if.end3:                                          ; preds = %if.end
  %cmp6 = icmp eq i32 %2, 268435455
  br i1 %cmp6, label %if.then10, label %lor.lhs.false

lor.lhs.false:                                    ; preds = %if.end3
  %next_child_index = getelementptr inbounds nuw i8, ptr %0, i64 12
  %3 = load i32, ptr %next_child_index, align 4
  %cmp8 = icmp eq i32 %3, -1
  br i1 %cmp8, label %if.then10, label %if.end11

if.then10:                                        ; preds = %lor.lhs.false, %if.end3
  tail call void (ptr, ptr, i32, ptr, ptr, ...) @error_setg_internal(ptr noundef %errp, ptr noundef nonnull @.str.6, i32 noundef 1085, ptr noundef nonnull @__func__.quorum_add_child, ptr noundef nonnull @.str.26) #17
  br label %return

if.end11:                                         ; preds = %lor.lhs.false
  %call = call i32 (ptr, i64, ptr, ...) @snprintf(ptr noundef nonnull dereferenceable(1) %indexstr, i64 noundef 32, ptr noundef nonnull @.str.27, i32 noundef %3) #17
  %or.cond = icmp ugt i32 %call, 31
  br i1 %or.cond, label %if.then18, label %if.end19

if.then18:                                        ; preds = %if.end11
  tail call void (ptr, ptr, i32, ptr, ptr, ...) @error_setg_internal(ptr noundef %errp, ptr noundef nonnull @.str.6, i32 noundef 1091, ptr noundef nonnull @__func__.quorum_add_child, ptr noundef nonnull @.str.28) #17
  br label %return

if.end19:                                         ; preds = %if.end11
  %4 = load i32, ptr %next_child_index, align 4
  %inc = add i32 %4, 1
  store i32 %inc, ptr %next_child_index, align 4
  tail call void @bdrv_ref(ptr noundef %child_bs) #17
  %call22 = call ptr @bdrv_attach_child(ptr noundef nonnull %bs, ptr noundef %child_bs, ptr noundef nonnull %indexstr, ptr noundef nonnull @child_of_bds, i32 noundef 1, ptr noundef %errp) #17
  %cmp23 = icmp eq ptr %call22, null
  br i1 %cmp23, label %if.then25, label %if.end27

if.then25:                                        ; preds = %if.end19
  %5 = load i32, ptr %next_child_index, align 4
  %dec = add i32 %5, -1
  store i32 %dec, ptr %next_child_index, align 4
  br label %return

if.end27:                                         ; preds = %if.end19
  %6 = load ptr, ptr %0, align 8
  %7 = load i32, ptr %num_children, align 8
  %add = add i32 %7, 1
  %conv29 = sext i32 %add to i64
  %call30 = call ptr @g_realloc_n(ptr noundef %6, i64 noundef %conv29, i64 noundef 8) #17
  store ptr %call30, ptr %0, align 8
  %8 = load i32, ptr %num_children, align 8
  %inc34 = add i32 %8, 1
  store i32 %inc34, ptr %num_children, align 8
  %idxprom = sext i32 %8 to i64
  %arrayidx = getelementptr ptr, ptr %call30, i64 %idxprom
  store ptr %call22, ptr %arrayidx, align 8
  %9 = load ptr, ptr %opaque, align 8
  %supported_zero_flags.i = getelementptr inbounds nuw i8, ptr %bs, i64 16592
  store i32 276, ptr %supported_zero_flags.i, align 8
  %num_children.i = getelementptr inbounds nuw i8, ptr %9, i64 8
  %10 = load i32, ptr %num_children.i, align 8
  %cmp7.i = icmp sgt i32 %10, 0
  br i1 %cmp7.i, label %for.body.i, label %quorum_refresh_flags.exit

for.body.i:                                       ; preds = %if.end27, %for.body.i
  %11 = phi i32 [ %and.i, %for.body.i ], [ 276, %if.end27 ]
  %indvars.iv.i = phi i64 [ %indvars.iv.next.i, %for.body.i ], [ 0, %if.end27 ]
  %12 = load ptr, ptr %9, align 8
  %arrayidx.i = getelementptr ptr, ptr %12, i64 %indvars.iv.i
  %13 = load ptr, ptr %arrayidx.i, align 8
  %14 = load ptr, ptr %13, align 8
  %supported_zero_flags2.i = getelementptr inbounds nuw i8, ptr %14, i64 16592
  %15 = load i32, ptr %supported_zero_flags2.i, align 8
  %and.i = and i32 %15, %11
  store i32 %and.i, ptr %supported_zero_flags.i, align 8
  %indvars.iv.next.i = add nuw nsw i64 %indvars.iv.i, 1
  %16 = load i32, ptr %num_children.i, align 8
  %17 = sext i32 %16 to i64
  %cmp.i = icmp slt i64 %indvars.iv.next.i, %17
  br i1 %cmp.i, label %for.body.i, label %for.end.loopexit.i, !llvm.loop !8

for.end.loopexit.i:                               ; preds = %for.body.i
  %18 = or i32 %and.i, 64
  br label %quorum_refresh_flags.exit

quorum_refresh_flags.exit:                        ; preds = %if.end27, %for.end.loopexit.i
  %or.i = phi i32 [ %18, %for.end.loopexit.i ], [ 340, %if.end27 ]
  store i32 %or.i, ptr %supported_zero_flags.i, align 8
  br label %return

return:                                           ; preds = %quorum_refresh_flags.exit, %if.then25, %if.then18, %if.then10, %if.then
  ret void
}